(lp0
S'poi'
p1
aS'expenses'
p2
aS'deferred_income'
p3
aS'long_term_incentive'
p4
aS'fraction_from_poi'
p5
aS'restricted_stock_deferred'
p6
aS'shared_receipt_with_poi'
p7
aS'loan_advances'
p8
aS'other'
p9
aS'bonus'
p10
aS'total_stock_value'
p11
aS'restricted_stock'
p12
aS'salary'
p13
aS'total_payments'
p14
aS'fraction_to_poi'
p15
aS'exercised_stock_options'
p16
a.