(lp0
S'poi'
p1
aS'deferral_payments'
p2
aS'expenses'
p3
aS'deferred_income'
p4
aS'long_term_incentive'
p5
aS'fraction_from_poi'
p6
aS'restricted_stock_deferred'
p7
aS'shared_receipt_with_poi'
p8
aS'loan_advances'
p9
aS'other'
p10
aS'director_fees'
p11
aS'bonus'
p12
aS'total_stock_value'
p13
aS'restricted_stock'
p14
aS'salary'
p15
aS'total_payments'
p16
aS'fraction_to_poi'
p17
aS'exercised_stock_options'
p18
a.